target datalayout = "e-m:e-p270:32:32-p271:32:32-p272:64:64-i64:64-i128:128-f80:128-n8:16:32:64-S128"
target triple = "x86_64-pc-linux-gnu"

%struct._typeobject = type { %struct.PyVarObject, ptr, i64, i64, ptr, i64, ptr, ptr, ptr, ptr, ptr, ptr, ptr, ptr, ptr, ptr, ptr, ptr, ptr, i64, ptr, ptr, ptr, ptr, i64, ptr, ptr, ptr, ptr, ptr, ptr, ptr, ptr, ptr, i64, ptr, ptr, ptr, ptr, ptr, ptr, ptr, ptr, ptr, ptr, ptr, i32, ptr, ptr }
%struct.PyVarObject = type { %struct._object, i64 }
%struct._object = type { i64, ptr }
%"struct.nanobind::error_scope" = type { ptr, ptr, ptr }

@.str.4 = private unnamed_addr constant [9 x i8] c"__name__\00", align 1
@.str.5 = private unnamed_addr constant [11 x i8] c"__module__\00", align 1
@.str.7 = private unnamed_addr constant [6 x i8] c"%U.%U\00", align 1

; Function Attrs: mustprogress nounwind uwtable
define linkonce_odr hidden void @_ZN8nanobind11error_scopeD2Ev(ptr noundef nonnull align 8 dereferenceable(24) %0) unnamed_addr #6 comdat align 2 personality ptr @__gxx_personality_v0 {
  %2 = alloca ptr, align 8
  store ptr %0, ptr %2, align 8
  %3 = load ptr, ptr %2, align 8
  %4 = getelementptr inbounds nuw %"struct.nanobind::error_scope", ptr %3, i32 0, i32 0
  %5 = load ptr, ptr %4, align 8
  %6 = getelementptr inbounds nuw %"struct.nanobind::error_scope", ptr %3, i32 0, i32 1
  %7 = load ptr, ptr %6, align 8
  %8 = getelementptr inbounds nuw %"struct.nanobind::error_scope", ptr %3, i32 0, i32 2
  %9 = load ptr, ptr %8, align 8
  invoke void @PyErr_Restore(ptr noundef %5, ptr noundef %7, ptr noundef %9)
          to label %10 unwind label %11

10:                                               ; preds = %1
  ret void

11:                                               ; preds = %1
  %12 = landingpad { ptr, i32 }
          catch ptr null
  %13 = extractvalue { ptr, i32 } %12, 0
  call void @__clang_call_terminate(ptr %13) #22
  unreachable
}

; Function Attrs: inlinehint mustprogress uwtable
define internal void @_ZL10_Py_DECREFP7_object(ptr noundef %0) #10 {
  %2 = alloca ptr, align 8
  store ptr %0, ptr %2, align 8
  %3 = load ptr, ptr %2, align 8
  %4 = getelementptr inbounds nuw %struct._object, ptr %3, i32 0, i32 0
  %5 = load i64, ptr %4, align 8
  %6 = add nsw i64 %5, -1
  store i64 %6, ptr %4, align 8
  %7 = icmp ne i64 %6, 0
  br i1 %7, label %8, label %9

8:                                                ; preds = %1
  br label %11

9:                                                ; preds = %1
  %10 = load ptr, ptr %2, align 8
  call void @_Py_Dealloc(ptr noundef %10)
  br label %11

11:                                               ; preds = %9, %8
  ret void
}

; Function Attrs: inlinehint mustprogress nounwind uwtable
define internal noundef i32 @_ZL17PyType_HasFeatureP11_typeobjectm(ptr noundef %0, i64 noundef %1) #2 {
  %3 = alloca ptr, align 8
  %4 = alloca i64, align 8
  %5 = alloca i64, align 8
  store ptr %0, ptr %3, align 8
  store i64 %1, ptr %4, align 8
  call void @llvm.lifetime.start.p0(i64 8, ptr %5) #20
  %6 = load ptr, ptr %3, align 8
  %7 = getelementptr inbounds nuw %struct._typeobject, ptr %6, i32 0, i32 19
  %8 = load i64, ptr %7, align 8
  store i64 %8, ptr %5, align 8
  %9 = load i64, ptr %5, align 8
  %10 = load i64, ptr %4, align 8
  %11 = and i64 %9, %10
  %12 = icmp ne i64 %11, 0
  %13 = zext i1 %12 to i32
  call void @llvm.lifetime.end.p0(i64 8, ptr %5) #20
  ret i32 %13
}

; Function Attrs: mustprogress uwtable
define linkonce_odr hidden void @_ZN8nanobind11error_scopeC2Ev(ptr noundef nonnull align 8 dereferenceable(24) %0) unnamed_addr #0 comdat align 2 {
  %2 = alloca ptr, align 8
  store ptr %0, ptr %2, align 8
  %3 = load ptr, ptr %2, align 8
  %4 = getelementptr inbounds nuw %"struct.nanobind::error_scope", ptr %3, i32 0, i32 0
  %5 = getelementptr inbounds nuw %"struct.nanobind::error_scope", ptr %3, i32 0, i32 1
  %6 = getelementptr inbounds nuw %"struct.nanobind::error_scope", ptr %3, i32 0, i32 2
  call void @PyErr_Fetch(ptr noundef %4, ptr noundef %5, ptr noundef %6)
  ret void
}

; Function Attrs: mustprogress nounwind uwtable
define noundef ptr @_ZN8nanobind6detail12nb_type_nameEP7_object(ptr noundef %0) #6 personality ptr @__gxx_personality_v0 {
  %2 = alloca ptr, align 8
  %3 = alloca %"struct.nanobind::error_scope", align 8
  %4 = alloca ptr, align 8
  %5 = alloca ptr, align 8
  %6 = alloca ptr, align 8
  store ptr %0, ptr %2, align 8
  call void @llvm.lifetime.start.p0(i64 24, ptr %3) #20
  invoke void @_ZN8nanobind11error_scopeC2Ev(ptr noundef nonnull align 8 dereferenceable(24) %3)
          to label %7 unwind label %30

7:                                                ; preds = %1
  call void @llvm.lifetime.start.p0(i64 8, ptr %4) #20
  %8 = load ptr, ptr %2, align 8
  %9 = invoke ptr @PyObject_GetAttrString(ptr noundef %8, ptr noundef @.str.4)
          to label %10 unwind label %30

10:                                               ; preds = %7
  store ptr %9, ptr %4, align 8
  %11 = load ptr, ptr %2, align 8
  %12 = invoke noundef i32 @_ZL17PyType_HasFeatureP11_typeobjectm(ptr noundef %11, i64 noundef 512)
          to label %13 unwind label %30

13:                                               ; preds = %10
  %14 = icmp ne i32 %12, 0
  br i1 %14, label %15, label %28

15:                                               ; preds = %13
  call void @llvm.lifetime.start.p0(i64 8, ptr %5) #20
  %16 = load ptr, ptr %2, align 8
  %17 = invoke ptr @PyObject_GetAttrString(ptr noundef %16, ptr noundef @.str.5)
          to label %18 unwind label %30

18:                                               ; preds = %15
  store ptr %17, ptr %5, align 8
  call void @llvm.lifetime.start.p0(i64 8, ptr %6) #20
  %19 = load ptr, ptr %5, align 8
  %20 = load ptr, ptr %4, align 8
  %21 = invoke ptr (ptr, ...) @PyUnicode_FromFormat(ptr noundef @.str.7, ptr noundef %19, ptr noundef %20)
          to label %22 unwind label %30

22:                                               ; preds = %18
  store ptr %21, ptr %6, align 8
  %23 = load ptr, ptr %5, align 8
  invoke void @_ZL10_Py_DECREFP7_object(ptr noundef %23)
          to label %24 unwind label %30

24:                                               ; preds = %22
  %25 = load ptr, ptr %4, align 8
  invoke void @_ZL10_Py_DECREFP7_object(ptr noundef %25)
          to label %26 unwind label %30

26:                                               ; preds = %24
  %27 = load ptr, ptr %6, align 8
  store ptr %27, ptr %4, align 8
  call void @llvm.lifetime.end.p0(i64 8, ptr %6) #20
  call void @llvm.lifetime.end.p0(i64 8, ptr %5) #20
  br label %28

28:                                               ; preds = %26, %13
  %29 = load ptr, ptr %4, align 8
  call void @llvm.lifetime.end.p0(i64 8, ptr %4) #20
  call void @_ZN8nanobind11error_scopeD2Ev(ptr noundef nonnull align 8 dereferenceable(24) %3) #20
  call void @llvm.lifetime.end.p0(i64 24, ptr %3) #20
  ret ptr %29

30:                                               ; preds = %24, %22, %18, %15, %10, %7, %1
  %31 = landingpad { ptr, i32 }
          catch ptr null
  %32 = extractvalue { ptr, i32 } %31, 0
  call void @__clang_call_terminate(ptr %32) #22
  unreachable
}