; Function Attrs: mustprogress nounwind uwtable
define noundef ptr @_ZN8nanobind6detail12nb_type_nameEP7_object(ptr noundef %0) local_unnamed_addr #5 personality ptr @__gxx_personality_v0 {
  %2 = alloca %"struct.nanobind::error_scope", align 8
  call void @llvm.lifetime.start.p0(i64 24, ptr nonnull %2) #29
  %3 = getelementptr inbounds nuw i8, ptr %2, i64 8
  %4 = getelementptr inbounds nuw i8, ptr %2, i64 16
  invoke void @PyErr_Fetch(ptr noundef nonnull align 8 dereferenceable(24) %2, ptr noundef nonnull %3, ptr noundef nonnull %4)
          to label %_ZN8nanobind11error_scopeC2Ev.exit unwind label %26

_ZN8nanobind11error_scopeC2Ev.exit:               ; preds = %1
  %5 = invoke ptr @PyObject_GetAttrString(ptr noundef %0, ptr noundef nonnull @.str.4)
          to label %6 unwind label %26

6:                                                ; preds = %_ZN8nanobind11error_scopeC2Ev.exit
  %7 = getelementptr i8, ptr %0, i64 168
  %.val = load i64, ptr %7, align 8
  %8 = and i64 %.val, 512
  %.not = icmp eq i64 %8, 0
  br i1 %.not, label %_ZL10_Py_DECREFP7_object.exit11, label %9

9:                                                ; preds = %6
  %10 = invoke ptr @PyObject_GetAttrString(ptr noundef nonnull %0, ptr noundef nonnull @.str.5)
          to label %11 unwind label %26

11:                                               ; preds = %9
  %12 = invoke ptr (ptr, ...) @PyUnicode_FromFormat(ptr noundef nonnull @.str.7, ptr noundef %10, ptr noundef %5)
          to label %13 unwind label %26

13:                                               ; preds = %11
  %14 = load i64, ptr %10, align 8
  %15 = add nsw i64 %14, -1
  store i64 %15, ptr %10, align 8
  %.not.i = icmp eq i64 %15, 0
  br i1 %.not.i, label %16, label %_ZL10_Py_DECREFP7_object.exit

16:                                               ; preds = %13
  invoke void @_Py_Dealloc(ptr noundef nonnull %10)
          to label %_ZL10_Py_DECREFP7_object.exit unwind label %26

_ZL10_Py_DECREFP7_object.exit:                    ; preds = %13, %16
  %17 = load i64, ptr %5, align 8
  %18 = add nsw i64 %17, -1
  store i64 %18, ptr %5, align 8
  %.not.i9 = icmp eq i64 %18, 0
  br i1 %.not.i9, label %19, label %_ZL10_Py_DECREFP7_object.exit11

19:                                               ; preds = %_ZL10_Py_DECREFP7_object.exit
  invoke void @_Py_Dealloc(ptr noundef nonnull %5)
          to label %_ZL10_Py_DECREFP7_object.exit11 unwind label %26

_ZL10_Py_DECREFP7_object.exit11:                  ; preds = %_ZL10_Py_DECREFP7_object.exit, %19, %6
  %.0 = phi ptr [ %5, %6 ], [ %12, %19 ], [ %12, %_ZL10_Py_DECREFP7_object.exit ]
  %20 = load ptr, ptr %2, align 8
  %21 = load ptr, ptr %3, align 8
  %22 = load ptr, ptr %4, align 8
  invoke void @PyErr_Restore(ptr noundef %20, ptr noundef %21, ptr noundef %22)
          to label %_ZN8nanobind11error_scopeD2Ev.exit unwind label %23

23:                                               ; preds = %_ZL10_Py_DECREFP7_object.exit11
  %24 = landingpad { ptr, i32 }
          catch ptr null
  %25 = extractvalue { ptr, i32 } %24, 0
  call void @__clang_call_terminate(ptr %25) #30
  unreachable

_ZN8nanobind11error_scopeD2Ev.exit:               ; preds = %_ZL10_Py_DECREFP7_object.exit11
  call void @llvm.lifetime.end.p0(i64 24, ptr nonnull %2) #29
  ret ptr %.0

26:                                               ; preds = %19, %16, %1, %11, %9, %_ZN8nanobind11error_scopeC2Ev.exit
  %27 = landingpad { ptr, i32 }
          catch ptr null
  %28 = extractvalue { ptr, i32 } %27, 0
  call void @__clang_call_terminate(ptr %28) #30
  unreachable
}